Certificate:
    Data:
        Version: 3 (0x2)
        Serial Number: 2 (0x2)
        Signature Algorithm: sha256WithRSAEncryption
        Issuer: C=VN, ST=HN, L=Ha Noi, O=DGroup, LLC., OU=Server Certificate Provider, CN=DGROUP Media, LLC. CA/emailAddress=noreply@dgroup.vn
        Validity
            Not Before: Jan 15 17:53:26 2020 GMT
            Not After : Jan 12 17:53:26 2030 GMT
        Subject: C=VN, ST=HN, L=Ha Noi, O=DGroup, LLC., CN=D-Movie Media.
        Subject Public Key Info:
            Public Key Algorithm: rsaEncryption
                RSA Public-Key: (4096 bit)
                Modulus:
                    00:ea:b9:c4:c3:5c:0a:e4:52:f1:0e:e4:8d:4b:03:
                    2f:bc:3a:af:32:58:6e:4b:0e:7a:9d:3a:b1:56:2b:
                    0b:a8:b7:04:59:04:71:b3:a2:5e:47:8e:4a:ab:a3:
                    36:5c:97:79:47:53:52:bd:b6:4c:3e:0d:65:3c:17:
                    5e:53:d5:15:62:e7:d3:7c:1c:ea:cc:27:2c:c9:65:
                    28:44:f2:dc:8a:33:26:c2:7d:d5:cd:3b:e0:5f:c9:
                    25:2d:f5:6b:7e:9b:26:b2:32:b5:23:25:46:d5:5f:
                    27:66:1c:9f:e0:35:c1:f6:78:0d:9f:04:f5:1d:1c:
                    ea:4f:d9:78:5b:ad:45:1e:77:bc:e3:7f:38:68:e1:
                    87:c5:43:0e:2a:d2:1d:2d:fa:55:93:53:7d:17:12:
                    96:f9:19:33:00:9e:90:3d:30:38:fe:9f:28:4d:ce:
                    2e:a5:89:88:6b:97:0d:20:f9:9e:8e:a8:7a:8b:dd:
                    df:72:6e:25:42:87:93:eb:2f:cc:f1:66:9b:6e:2f:
                    41:a8:c3:9d:78:ac:12:68:1a:9c:f0:40:b4:67:5c:
                    57:41:82:c2:9c:3e:98:a5:9e:8a:fd:c6:ac:33:65:
                    e6:1a:83:bd:c5:3f:ab:21:78:9c:03:52:b4:e2:c1:
                    65:38:9d:5a:98:d6:b3:c3:ed:fe:95:d4:d5:a2:ba:
                    97:17:20:0b:c9:26:cb:b2:5e:e0:3a:ee:1e:fd:5c:
                    c1:03:93:04:2d:9b:5a:4d:31:d9:6e:0d:08:4f:85:
                    e6:ee:86:64:1f:f4:32:a2:0a:57:9e:ca:cb:75:61:
                    85:05:ac:4e:f4:c3:1f:14:46:89:db:d6:92:0e:dc:
                    f9:6b:49:56:ae:ff:89:b8:49:a8:50:0e:37:fa:8a:
                    8b:e4:ee:93:62:4e:59:68:f5:2d:6c:d6:b7:c7:da:
                    46:08:ea:3e:58:73:ba:d9:c7:89:59:74:d8:df:44:
                    1a:39:e0:87:27:e9:7a:d0:1a:d3:66:d9:42:50:50:
                    b8:c7:80:76:23:ed:20:44:f2:50:4e:12:0c:11:47:
                    d2:40:56:6b:38:a6:97:ae:ab:0d:3a:6f:05:c1:5a:
                    c3:77:6b:a3:f0:06:a8:67:81:ff:95:e9:3f:2d:92:
                    eb:55:09:9c:85:0f:2d:b6:5c:20:a5:84:5a:bc:db:
                    5e:ff:85:8e:96:66:ab:f3:60:6c:e5:9b:b6:27:d1:
                    5a:f5:2e:c4:1f:e1:94:9c:1f:b4:5c:0e:53:b7:4d:
                    51:c2:34:e5:7b:a2:d4:56:6a:56:d9:6c:3c:77:23:
                    06:72:01:0f:ab:3d:c8:e1:ce:d5:28:53:34:6f:2f:
                    b7:7d:af:b6:0e:fa:c8:70:61:d8:00:a0:cf:8f:0d:
                    10:f7:cd
                Exponent: 65537 (0x10001)
        X509v3 extensions:
            X509v3 Subject Key Identifier: 
                2A:70:C4:4B:70:0D:F9:87:42:38:8E:88:B3:6B:03:C5:4F:6E:BA:D7
            X509v3 Authority Key Identifier: 
                keyid:B9:BF:0F:D8:50:16:2F:D3:BC:62:EE:2A:02:9B:16:E0:4F:02:EE:F9

            X509v3 Basic Constraints: 
                CA:FALSE
            X509v3 Key Usage: 
                Digital Signature, Key Encipherment
            X509v3 Subject Alternative Name: 
                DNS:dmovie.vn, DNS:www.dmovie.vn, DNS:dmovie, IP Address:127.0.0.1
            Netscape Comment: 
                OpenSSL Generated Certificate
    Signature Algorithm: sha256WithRSAEncryption
         49:f9:6d:34:60:ae:4a:61:8a:50:18:c1:77:61:ef:6b:94:47:
         c3:c0:19:89:89:2f:53:d2:6a:3d:2b:b1:7e:f5:36:aa:6f:4b:
         4f:25:99:a6:b5:d9:25:33:a8:c3:1a:54:94:e3:a3:92:6d:dc:
         3f:ca:6b:40:b8:8e:5f:6d:e6:94:e2:05:89:d4:25:d3:ca:79:
         2d:a9:25:d0:88:8a:5a:df:c0:73:f1:29:22:f8:ca:c0:d8:a6:
         3d:d9:08:12:4d:37:87:a1:c2:1a:da:b2:42:d9:d3:c3:6e:30:
         2c:22:e4:c4:7f:d4:fd:7a:bb:41:ca:35:45:91:6e:20:ab:15:
         8e:e2:b1:8b:64:6f:d2:79:48:23:10:cf:6b:ff:e1:33:c4:04:
         0c:55:cf:6b:29:81:b6:ea:98:5a:1b:3c:43:a5:87:b3:0f:5f:
         c8:21:c6:80:45:07:8e:08:29:13:ff:a5:f9:e4:69:ec:71:0a:
         d0:b5:ce:32:02:d2:db:2f:0f:f9:a8:dd:a6:99:e3:4d:6a:98:
         80:e7:29:eb:88:76:88:9d:27:ae:35:4c:88:6a:f7:c6:58:4a:
         6a:f2:ec:57:7d:8f:b7:1f:08:e3:96:59:f8:51:2a:53:78:7f:
         67:d6:73:41:1c:a8:8d:ad:79:3f:73:4d:48:43:f9:cf:87:c2:
         71:7f:3f:a0:57:06:1b:84:ed:a7:04:66:de:4d:2a:df:e3:c4:
         07:7a:35:d3:70:f2:69:c4:3a:46:7a:d0:33:4e:8e:ba:5a:ba:
         43:cc:9a:3f:fd:65:8b:23:ab:87:64:5f:a8:47:dc:ce:15:11:
         ae:10:86:e4:8d:a8:90:0a:23:0d:b0:79:a1:81:2f:04:cf:6b:
         1b:ce:97:87:e6:68:7f:75:57:1d:5f:d7:d7:40:e1:28:d3:a6:
         c0:7f:bf:17:1e:af:d1:f6:9a:a8:b3:a9:3a:76:c1:27:2d:28:
         f4:52:43:13:a0:6f:4a:07:b7:fb:46:4f:68:71:75:61:8e:73:
         5d:6c:87:2b:a7:28:f9:12:68:4e:9b:dd:c9:b8:05:d3:14:46:
         53:02:0f:ca:2f:a8:a4:2e:31:b9:ca:c5:54:77:6e:94:ba:be:
         4c:e4:cf:3f:30:17:2e:25:fa:ac:1e:36:d0:60:89:6c:32:8a:
         9d:b1:64:47:fb:ff:c8:1a:84:bf:87:5e:1e:a2:e7:f3:8e:fe:
         a8:cb:32:b8:b0:a5:1c:ba:9b:70:9f:3b:9d:cc:5c:c9:20:f6:
         e1:d4:f2:cd:9b:e4:3b:4d:84:0e:69:af:bf:cc:e5:3e:cf:b7:
         3f:b7:13:9c:a3:99:c7:d1:49:50:3c:b3:37:53:b3:59:30:40:
         64:40:34:ab:6f:fd:19:c7
-----BEGIN CERTIFICATE-----
MIIGPjCCBCagAwIBAgIBAjANBgkqhkiG9w0BAQsFADCBqjELMAkGA1UEBhMCVk4x
CzAJBgNVBAgMAkhOMQ8wDQYDVQQHDAZIYSBOb2kxFTATBgNVBAoMDERHcm91cCwg
TExDLjEkMCIGA1UECwwbU2VydmVyIENlcnRpZmljYXRlIFByb3ZpZGVyMR4wHAYD
VQQDDBVER1JPVVAgTWVkaWEsIExMQy4gQ0ExIDAeBgkqhkiG9w0BCQEWEW5vcmVw
bHlAZGdyb3VwLnZuMB4XDTIwMDExNTE3NTMyNloXDTMwMDExMjE3NTMyNlowWzEL
MAkGA1UEBhMCVk4xCzAJBgNVBAgMAkhOMQ8wDQYDVQQHDAZIYSBOb2kxFTATBgNV
BAoMDERHcm91cCwgTExDLjEXMBUGA1UEAwwORC1Nb3ZpZSBNZWRpYS4wggIiMA0G
CSqGSIb3DQEBAQUAA4ICDwAwggIKAoICAQDqucTDXArkUvEO5I1LAy+8Oq8yWG5L
DnqdOrFWKwuotwRZBHGzol5HjkqrozZcl3lHU1K9tkw+DWU8F15T1RVi59N8HOrM
JyzJZShE8tyKMybCfdXNO+BfySUt9Wt+myayMrUjJUbVXydmHJ/gNcH2eA2fBPUd
HOpP2XhbrUUed7zjfzho4YfFQw4q0h0t+lWTU30XEpb5GTMAnpA9MDj+nyhNzi6l
iYhrlw0g+Z6OqHqL3d9ybiVCh5PrL8zxZptuL0Gow514rBJoGpzwQLRnXFdBgsKc
Ppilnor9xqwzZeYag73FP6sheJwDUrTiwWU4nVqY1rPD7f6V1NWiupcXIAvJJsuy
XuA67h79XMEDkwQtm1pNMdluDQhPhebuhmQf9DKiCleeyst1YYUFrE70wx8URonb
1pIO3PlrSVau/4m4SahQDjf6iovk7pNiTllo9S1s1rfH2kYI6j5Yc7rZx4lZdNjf
RBo54Icn6XrQGtNm2UJQULjHgHYj7SBE8lBOEgwRR9JAVms4ppeuqw06bwXBWsN3
a6PwBqhngf+V6T8tkutVCZyFDy22XCClhFq8217/hY6WZqvzYGzlm7Yn0Vr1LsQf
4ZScH7RcDlO3TVHCNOV7otRWalbZbDx3IwZyAQ+rPcjhztUoUzRvL7d9r7YO+shw
YdgAoM+PDRD3zQIDAQABo4G8MIG5MB0GA1UdDgQWBBQqcMRLcA35h0I4joizawPF
T2661zAfBgNVHSMEGDAWgBS5vw/YUBYv07xi7ioCmxbgTwLu+TAJBgNVHRMEAjAA
MAsGA1UdDwQEAwIFoDAxBgNVHREEKjAogglkbW92aWUudm6CDXd3dy5kbW92aWUu
dm6CBmRtb3ZpZYcEfwAAATAsBglghkgBhvhCAQ0EHxYdT3BlblNTTCBHZW5lcmF0
ZWQgQ2VydGlmaWNhdGUwDQYJKoZIhvcNAQELBQADggIBAEn5bTRgrkphilAYwXdh
72uUR8PAGYmJL1PSaj0rsX71NqpvS08lmaa12SUzqMMaVJTjo5Jt3D/Ka0C4jl9t
5pTiBYnUJdPKeS2pJdCIilrfwHPxKSL4ysDYpj3ZCBJNN4ehwhraskLZ08NuMCwi
5MR/1P16u0HKNUWRbiCrFY7isYtkb9J5SCMQz2v/4TPEBAxVz2spgbbqmFobPEOl
h7MPX8ghxoBFB44IKRP/pfnkaexxCtC1zjIC0tsvD/mo3aaZ401qmIDnKeuIdoid
J641TIhq98ZYSmry7Fd9j7cfCOOWWfhRKlN4f2fWc0EcqI2teT9zTUhD+c+HwnF/
P6BXBhuE7acEZt5NKt/jxAd6NdNw8mnEOkZ60DNOjrpaukPMmj/9ZYsjq4dkX6hH
3M4VEa4QhuSNqJAKIw2weaGBLwTPaxvOl4fmaH91Vx1f19dA4SjTpsB/vxcer9H2
mqizqTp2wSctKPRSQxOgb0oHt/tGT2hxdWGOc11shyunKPkSaE6b3cm4BdMURlMC
D8ovqKQuMbnKxVR3bpS6vkzkzz8wFy4l+qweNtBgiWwyip2xZEf7/8gahL+HXh6i
5/OO/qjLMriwpRy6m3CfO53MXMkg9uHU8s2b5DtNhA5pr7/M5T7Ptz+3E5yjmcfR
SVA8szdTs1kwQGRANKtv/RnH
-----END CERTIFICATE-----
